Certificate:
    Data:
        Version: 3 (0x2)
        Serial Number: 2 (0x2)
        Signature Algorithm: sha256WithRSAEncryption
        Issuer: C=US, ST=Maryland, L=Baltimore, O=Test CA, Limited, OU=Server Research Department, CN=Test CA/emailAddress=example@localhost
        Validity
            Not Before: May  8 12:06:14 2025 GMT
            Not After : May  8 12:06:14 2026 GMT
        Subject: C=US, ST=MD, L=Baltimore, O=localhost, CN=app
        Subject Public Key Info:
            Public Key Algorithm: rsaEncryption
                Public-Key: (2048 bit)
                Modulus:
                    00:a5:5d:eb:f3:61:c8:4c:bb:c9:ac:0e:02:97:cd:
                    74:e6:b5:d7:ac:eb:a6:1b:ad:00:f2:b7:e7:2f:b2:
                    55:fd:c9:67:21:85:32:39:2a:05:76:f6:f5:f9:cc:
                    43:e8:d2:0f:3e:b5:95:4a:1b:b0:b5:96:5e:ab:74:
                    dd:c4:bc:61:81:fa:c9:08:10:27:c1:25:df:d8:b0:
                    24:d0:b5:40:84:33:c6:4e:f3:d6:2a:15:e4:b2:4e:
                    d1:f1:8c:6c:1e:ba:aa:08:36:5a:61:50:47:ef:a8:
                    7b:14:d4:80:66:28:16:d8:d5:de:9a:5a:ec:19:82:
                    0d:62:46:05:88:1b:89:bc:65:d7:e4:de:b9:ac:d1:
                    be:f4:4d:15:b4:f1:4a:ce:60:f3:54:b8:fa:cb:f2:
                    6c:71:27:64:a5:ac:5d:87:d1:3f:55:55:81:86:ca:
                    f8:dc:33:eb:c9:1d:08:96:33:bc:10:5b:87:2b:1c:
                    1e:28:35:f2:1c:32:48:e3:9c:1c:b0:7b:cb:7e:58:
                    06:d4:07:fe:f6:65:46:42:84:39:4e:7a:eb:92:be:
                    36:24:ae:5e:34:b4:1c:fb:8e:f2:e6:a9:c9:30:0c:
                    f5:1f:ab:2e:fa:ae:9f:ad:a8:be:68:b2:9b:6c:b6:
                    63:4c:ee:37:35:4f:01:8d:a5:0d:a2:c4:07:28:ef:
                    43:e7
                Exponent: 65537 (0x10001)
        X509v3 extensions:
            X509v3 Subject Key Identifier: 
                9B:1F:88:B0:42:1A:0D:33:79:80:25:AE:7A:89:1F:67:E4:80:AC:1E
            X509v3 Authority Key Identifier: 
                57:E4:27:B1:7C:C0:FE:70:DF:79:09:56:F6:3B:A6:7C:34:15:9D:8E
            X509v3 Basic Constraints: 
                CA:FALSE
            X509v3 Key Usage: 
                Digital Signature, Key Encipherment
            Netscape Comment: 
                OpenSSL Generated Certificate
    Signature Algorithm: sha256WithRSAEncryption
    Signature Value:
        34:4f:96:13:c6:a2:9c:a9:38:33:a1:0f:c3:7c:7d:86:e0:63:
        88:f2:1f:ea:dd:ca:cc:99:d3:a1:14:6e:71:93:aa:42:75:48:
        12:c4:4c:21:d0:cb:b6:48:b5:9f:4e:6a:df:d7:ea:d1:79:37:
        6d:ac:66:de:4f:99:0e:a8:93:26:d1:da:2b:07:f9:b7:7b:3e:
        bb:b5:03:fe:c2:ea:65:dd:ca:9f:fc:f3:2e:e0:90:77:e6:1d:
        5b:9c:b6:50:fa:eb:5c:b0:22:eb:39:a4:7a:72:57:c7:62:fa:
        1b:c7:c0:9a:d9:95:d4:b2:62:d2:87:f1:d2:fa:ab:52:1f:1c:
        d8:a7:1f:23:8a:69:c6:e7:17:ee:dc:c2:ea:5b:52:0e:0e:6d:
        66:12:88:f1:85:d8:ea:96:76:32:db:56:6e:e1:3b:af:2b:a6:
        6c:b7:01:b1:4d:01:ef:34:81:6d:33:65:7f:48:19:0d:23:e6:
        08:ec:2f:89:5e:4d:9a:12:2e:ae:ef:28:45:9b:87:28:09:26:
        42:7d:4c:23:18:e4:a2:cf:f4:35:d1:f3:fd:a6:d5:22:2b:0d:
        04:62:58:c4:75:d3:14:40:9e:1f:e7:ba:3c:67:fd:6c:b5:1d:
        45:da:fa:d8:c1:59:90:00:92:9d:db:b3:01:9a:4a:a8:c1:66:
        ab:6d:2f:34:29:75:fa:4c:cc:c4:2a:63:11:26:d2:39:ac:9e:
        97:27:a2:50:a8:02:49:e0:67:3f:58:5b:e7:4e:28:c6:5f:d7:
        27:9a:d7:2d:33:82:a9:f9:0a:39:72:b2:a3:45:c7:e2:4e:35:
        64:d5:ed:ad:12:1a:ae:72:04:de:d2:24:f7:fb:57:b2:2e:2e:
        bc:80:54:d4:f4:58:35:d9:d9:d8:83:d1:09:ca:b7:0f:2b:db:
        0d:a5:22:24:0a:29:fb:07:be:73:0b:a8:12:f6:6d:50:c5:ef:
        2e:8e:e1:67:5e:86:60:d5:19:a8:f0:0b:81:bf:71:44:9d:75:
        fc:45:97:c6:da:06:03:10:c0:27:38:27:0f:30:c0:ed:93:1b:
        f8:9f:09:72:09:3b:b5:d6:41:9f:72:ba:2c:d0:a6:c1:9a:7d:
        fd:7b:72:7f:2a:2f:9e:e0:96:ec:d9:4c:bc:e3:3c:92:42:15:
        20:a0:14:43:f0:e5:1b:70:b5:b9:e3:21:10:ec:32:28:9c:2e:
        8c:dc:e0:7d:4e:fd:15:6f:d9:d4:3e:39:91:07:c3:c3:03:4b:
        6b:4d:59:ba:e3:0d:f9:57:45:80:dd:84:fb:2a:a9:3f:6c:f8:
        f6:6c:43:d6:54:f7:c2:48:11:a7:f0:58:f4:7d:49:21:1e:87:
        99:0e:2a:e5:0e:a0:13:92
-----BEGIN CERTIFICATE-----
MIIE/jCCAuagAwIBAgIBAjANBgkqhkiG9w0BAQsFADCBqDELMAkGA1UEBhMCVVMx
ETAPBgNVBAgMCE1hcnlsYW5kMRIwEAYDVQQHDAlCYWx0aW1vcmUxGTAXBgNVBAoM
EFRlc3QgQ0EsIExpbWl0ZWQxIzAhBgNVBAsMGlNlcnZlciBSZXNlYXJjaCBEZXBh
cnRtZW50MRAwDgYDVQQDDAdUZXN0IENBMSAwHgYJKoZIhvcNAQkBFhFleGFtcGxl
QGxvY2FsaG9zdDAeFw0yNTA1MDgxMjA2MTRaFw0yNjA1MDgxMjA2MTRaMFAxCzAJ
BgNVBAYTAlVTMQswCQYDVQQIDAJNRDESMBAGA1UEBwwJQmFsdGltb3JlMRIwEAYD
VQQKDAlsb2NhbGhvc3QxDDAKBgNVBAMMA2FwcDCCASIwDQYJKoZIhvcNAQEBBQAD
ggEPADCCAQoCggEBAKVd6/NhyEy7yawOApfNdOa116zrphutAPK35y+yVf3JZyGF
MjkqBXb29fnMQ+jSDz61lUobsLWWXqt03cS8YYH6yQgQJ8El39iwJNC1QIQzxk7z
1ioV5LJO0fGMbB66qgg2WmFQR++oexTUgGYoFtjV3ppa7BmCDWJGBYgbibxl1+Te
uazRvvRNFbTxSs5g81S4+svybHEnZKWsXYfRP1VVgYbK+Nwz68kdCJYzvBBbhysc
Hig18hwySOOcHLB7y35YBtQH/vZlRkKEOU5665K+NiSuXjS0HPuO8uapyTAM9R+r
Lvqun62ovmiym2y2Y0zuNzVPAY2lDaLEByjvQ+cCAwEAAaOBiTCBhjAdBgNVHQ4E
FgQUmx+IsEIaDTN5gCWueokfZ+SArB4wHwYDVR0jBBgwFoAUV+QnsXzA/nDfeQlW
9jumfDQVnY4wCQYDVR0TBAIwADALBgNVHQ8EBAMCBaAwLAYJYIZIAYb4QgENBB8W
HU9wZW5TU0wgR2VuZXJhdGVkIENlcnRpZmljYXRlMA0GCSqGSIb3DQEBCwUAA4IC
AQA0T5YTxqKcqTgzoQ/DfH2G4GOI8h/q3crMmdOhFG5xk6pCdUgSxEwh0Mu2SLWf
Tmrf1+rReTdtrGbeT5kOqJMm0dorB/m3ez67tQP+wupl3cqf/PMu4JB35h1bnLZQ
+utcsCLrOaR6clfHYvobx8Ca2ZXUsmLSh/HS+qtSHxzYpx8jimnG5xfu3MLqW1IO
Dm1mEojxhdjqlnYy21Zu4TuvK6ZstwGxTQHvNIFtM2V/SBkNI+YI7C+JXk2aEi6u
7yhFm4coCSZCfUwjGOSiz/Q10fP9ptUiKw0EYljEddMUQJ4f57o8Z/1stR1F2vrY
wVmQAJKd27MBmkqowWarbS80KXX6TMzEKmMRJtI5rJ6XJ6JQqAJJ4Gc/WFvnTijG
X9cnmtctM4Kp+Qo5crKjRcfiTjVk1e2tEhqucgTe0iT3+1eyLi68gFTU9Fg12dnY
g9EJyrcPK9sNpSIkCin7B75zC6gS9m1Qxe8ujuFnXoZg1Rmo8AuBv3FEnXX8RZfG
2gYDEMAnOCcPMMDtkxv4nwlyCTu11kGfcros0KbBmn39e3J/Ki+e4Jbs2Uy84zyS
QhUgoBRD8OUbcLW54yEQ7DIonC6M3OB9Tv0Vb9nUPjmRB8PDA0trTVm64w35V0WA
3YT7Kqk/bPj2bEPWVPfCSBGn8Fj0fUkhHoeZDirlDqATkg==
-----END CERTIFICATE-----
